target datalayout = "e-m:e-p270:32:32-p271:32:32-p272:64:64-i64:64-i128:128-f80:128-n8:16:32:64-S128"
target triple = "x86_64-pc-linux-gnu"

%struct.CordRep = type { %struct.Generic, %union.ConcatOrFunc }
%struct.Generic = type { i8, i8, i8, i8, i64 }
%union.ConcatOrFunc = type { %struct.Concatenation }
%struct.Concatenation = type { ptr, ptr }
%struct.Function = type { ptr, ptr }
%struct.substr_args = type { ptr, i64 }

; Function Attrs: nounwind uwtable
define internal signext i8 @CORD_apply_access_fn(i64 noundef %0, ptr noundef %1) #0 {
  %3 = alloca i64, align 8
  %4 = alloca ptr, align 8
  %5 = alloca ptr, align 8
  %6 = alloca ptr, align 8
  store i64 %0, ptr %3, align 8, !tbaa !13
  store ptr %1, ptr %4, align 8, !tbaa !3
  call void @llvm.lifetime.start.p0(i64 8, ptr %5) #9
  %7 = load ptr, ptr %4, align 8, !tbaa !3
  store ptr %7, ptr %5, align 8, !tbaa !39
  call void @llvm.lifetime.start.p0(i64 8, ptr %6) #9
  %8 = load ptr, ptr %5, align 8, !tbaa !39
  %9 = getelementptr inbounds nuw %struct.substr_args, ptr %8, i32 0, i32 0
  %10 = load ptr, ptr %9, align 8, !tbaa !41
  %11 = getelementptr inbounds nuw %struct.CordRep, ptr %10, i32 0, i32 1
  store ptr %11, ptr %6, align 8, !tbaa !29
  %12 = load ptr, ptr %6, align 8, !tbaa !29
  %13 = getelementptr inbounds nuw %struct.Function, ptr %12, i32 0, i32 0
  %14 = load ptr, ptr %13, align 8, !tbaa !31
  %15 = load i64, ptr %3, align 8, !tbaa !13
  %16 = load ptr, ptr %5, align 8, !tbaa !39
  %17 = getelementptr inbounds nuw %struct.substr_args, ptr %16, i32 0, i32 1
  %18 = load i64, ptr %17, align 8, !tbaa !43
  %19 = add i64 %15, %18
  %20 = load ptr, ptr %6, align 8, !tbaa !29
  %21 = getelementptr inbounds nuw %struct.Function, ptr %20, i32 0, i32 1
  %22 = load ptr, ptr %21, align 8, !tbaa !33
  %23 = call signext i8 %14(i64 noundef %19, ptr noundef %22)
  call void @llvm.lifetime.end.p0(i64 8, ptr %6) #9
  call void @llvm.lifetime.end.p0(i64 8, ptr %5) #9
  ret i8 %23
}