; Function Attrs: nounwind uwtable
define internal signext i8 @CORD_apply_access_fn(i64 noundef %0, ptr noundef readonly captures(none) %1) #2 {
  %3 = load ptr, ptr %1, align 8, !tbaa !41
  %4 = getelementptr inbounds nuw i8, ptr %3, i64 16
  %5 = load ptr, ptr %4, align 8, !tbaa !23
  %6 = getelementptr inbounds nuw i8, ptr %1, i64 8
  %7 = load i64, ptr %6, align 8, !tbaa !38
  %8 = add i64 %7, %0
  %9 = getelementptr inbounds nuw i8, ptr %3, i64 24
  %10 = load ptr, ptr %9, align 8, !tbaa !25
  %11 = tail call signext i8 %5(i64 noundef %8, ptr noundef %10) #17
  ret i8 %11
}